target datalayout = "e-m:e-p270:32:32-p271:32:32-p272:64:64-i64:64-i128:128-f80:128-n8:16:32:64-S128"
target triple = "x86_64-unknown-linux-gnu"

%"class.std::__cxx11::basic_string" = type { %"struct.std::__cxx11::basic_string<char>::_Alloc_hider", i64, %union.anon }
%"struct.std::__cxx11::basic_string<char>::_Alloc_hider" = type { ptr }
%union.anon = type { i64, [8 x i8] }
%"class.OpenColorIO_v2_4dev::MetalShaderClassWrapper" = type { %"class.OpenColorIO_v2_4dev::GpuShaderClassWrapper", %"class.std::__cxx11::basic_string", %"class.std::__cxx11::basic_string", %"class.std::vector" }
%"class.OpenColorIO_v2_4dev::GpuShaderClassWrapper" = type { ptr }
%"class.std::vector" = type { %"struct.std::_Vector_base" }
%"struct.std::_Vector_base" = type { %"struct.std::_Vector_base<OpenColorIO_v2_4dev::MetalShaderClassWrapper::FunctionParam, std::allocator<OpenColorIO_v2_4dev::MetalShaderClassWrapper::FunctionParam>>::_Vector_impl" }
%"struct.std::_Vector_base<OpenColorIO_v2_4dev::MetalShaderClassWrapper::FunctionParam, std::allocator<OpenColorIO_v2_4dev::MetalShaderClassWrapper::FunctionParam>>::_Vector_impl" = type { %"struct.std::_Vector_base<OpenColorIO_v2_4dev::MetalShaderClassWrapper::FunctionParam, std::allocator<OpenColorIO_v2_4dev::MetalShaderClassWrapper::FunctionParam>>::_Vector_impl_data" }
%"struct.std::_Vector_base<OpenColorIO_v2_4dev::MetalShaderClassWrapper::FunctionParam, std::allocator<OpenColorIO_v2_4dev::MetalShaderClassWrapper::FunctionParam>>::_Vector_impl_data" = type { ptr, ptr, ptr }

; Function Attrs: mustprogress uwtable
define hidden noundef nonnull align 8 dereferenceable(96) ptr @_ZN19OpenColorIO_v2_4dev23MetalShaderClassWrapperaSERKS0_(ptr noundef nonnull align 8 dereferenceable(96) %this, ptr noundef nonnull align 8 dereferenceable(96) %rhs) #0 align 2 {
entry:
  %this.addr = alloca ptr, align 8
  %rhs.addr = alloca ptr, align 8
  store ptr %this, ptr %this.addr, align 8
  store ptr %rhs, ptr %rhs.addr, align 8
  %this1 = load ptr, ptr %this.addr, align 8
  %0 = load ptr, ptr %rhs.addr, align 8
  %m_className = getelementptr inbounds %"class.OpenColorIO_v2_4dev::MetalShaderClassWrapper", ptr %0, i32 0, i32 1
  %m_className2 = getelementptr inbounds %"class.OpenColorIO_v2_4dev::MetalShaderClassWrapper", ptr %this1, i32 0, i32 1
  %call = call noundef nonnull align 8 dereferenceable(32) ptr @_ZNSt7__cxx1112basic_stringIcSt11char_traitsIcESaIcEEaSERKS4_(ptr noundef nonnull align 8 dereferenceable(32) %m_className2, ptr noundef nonnull align 8 dereferenceable(32) %m_className)
  %1 = load ptr, ptr %rhs.addr, align 8
  %m_functionName = getelementptr inbounds %"class.OpenColorIO_v2_4dev::MetalShaderClassWrapper", ptr %1, i32 0, i32 2
  %m_functionName3 = getelementptr inbounds %"class.OpenColorIO_v2_4dev::MetalShaderClassWrapper", ptr %this1, i32 0, i32 2
  %call4 = call noundef nonnull align 8 dereferenceable(32) ptr @_ZNSt7__cxx1112basic_stringIcSt11char_traitsIcESaIcEEaSERKS4_(ptr noundef nonnull align 8 dereferenceable(32) %m_functionName3, ptr noundef nonnull align 8 dereferenceable(32) %m_functionName)
  %2 = load ptr, ptr %rhs.addr, align 8
  %m_functionParameters = getelementptr inbounds %"class.OpenColorIO_v2_4dev::MetalShaderClassWrapper", ptr %2, i32 0, i32 3
  %m_functionParameters5 = getelementptr inbounds %"class.OpenColorIO_v2_4dev::MetalShaderClassWrapper", ptr %this1, i32 0, i32 3
  %call6 = call noundef nonnull align 8 dereferenceable(24) ptr @_ZNSt6vectorIN19OpenColorIO_v2_4dev23MetalShaderClassWrapper13FunctionParamESaIS2_EEaSERKS4_(ptr noundef nonnull align 8 dereferenceable(24) %m_functionParameters5, ptr noundef nonnull align 8 dereferenceable(24) %m_functionParameters)
  ret ptr %this1
}