; Function Attrs: mustprogress uwtable
define hidden noundef nonnull align 8 dereferenceable(96) ptr @_ZN19OpenColorIO_v2_4dev23MetalShaderClassWrapperaSERKS0_(ptr noundef nonnull returned align 8 dereferenceable(96) %this, ptr noundef nonnull align 8 dereferenceable(96) %rhs) local_unnamed_addr #0 align 2 {
entry:
  %m_className = getelementptr inbounds i8, ptr %rhs, i64 8
  %m_className2 = getelementptr inbounds i8, ptr %this, i64 8
  %call = tail call noundef nonnull align 8 dereferenceable(32) ptr @_ZNSt7__cxx1112basic_stringIcSt11char_traitsIcESaIcEEaSERKS4_(ptr noundef nonnull align 8 dereferenceable(32) %m_className2, ptr noundef nonnull align 8 dereferenceable(32) %m_className)
  %m_functionName = getelementptr inbounds i8, ptr %rhs, i64 40
  %m_functionName3 = getelementptr inbounds i8, ptr %this, i64 40
  %call4 = tail call noundef nonnull align 8 dereferenceable(32) ptr @_ZNSt7__cxx1112basic_stringIcSt11char_traitsIcESaIcEEaSERKS4_(ptr noundef nonnull align 8 dereferenceable(32) %m_functionName3, ptr noundef nonnull align 8 dereferenceable(32) %m_functionName)
  %m_functionParameters = getelementptr inbounds i8, ptr %rhs, i64 72
  %m_functionParameters5 = getelementptr inbounds i8, ptr %this, i64 72
  %call6 = tail call noundef nonnull align 8 dereferenceable(24) ptr @_ZNSt6vectorIN19OpenColorIO_v2_4dev23MetalShaderClassWrapper13FunctionParamESaIS2_EEaSERKS4_(ptr noundef nonnull align 8 dereferenceable(24) %m_functionParameters5, ptr noundef nonnull align 8 dereferenceable(24) %m_functionParameters)
  ret ptr %this
}